; Function Attrs: mustprogress nofree norecurse nosync nounwind willreturn memory(read, argmem: readwrite, inaccessiblemem: none) uwtable
define noundef zeroext i1 @_ZN4base14PickleIterator8ReadBoolEPb(ptr noundef nonnull align 8 captures(none) dereferenceable(24) %0, ptr noundef writeonly captures(none) %1) local_unnamed_addr #4 align 2 {
  %3 = getelementptr inbounds nuw i8, ptr %0, i64 16
  %4 = load i64, ptr %3, align 8, !tbaa !22
  %5 = getelementptr inbounds nuw i8, ptr %0, i64 8
  %6 = load i64, ptr %5, align 8, !tbaa !21
  %7 = icmp eq i64 %4, %6
  br i1 %7, label %_ZN4base14PickleIterator15ReadBuiltinTypeIbEEbPT_.exit, label %_ZN4base14PickleIterator24GetReadPointerAndAdvanceIbEEPKcv.exit.i

_ZN4base14PickleIterator24GetReadPointerAndAdvanceIbEEPKcv.exit.i: ; preds = %2
  %8 = load ptr, ptr %0, align 8, !tbaa !18
  %9 = sub i64 %4, %6
  %10 = icmp ult i64 %9, 4
  %11 = add i64 %6, 4
  %storemerge.i.i.i = select i1 %10, i64 %4, i64 %11
  store i64 %storemerge.i.i.i, ptr %5, align 8, !tbaa !21
  %.not.not.i = icmp eq ptr %8, null
  br i1 %.not.not.i, label %_ZN4base14PickleIterator15ReadBuiltinTypeIbEEbPT_.exit, label %12

12:                                               ; preds = %_ZN4base14PickleIterator24GetReadPointerAndAdvanceIbEEPKcv.exit.i
  %13 = getelementptr inbounds nuw i8, ptr %8, i64 %6
  %14 = load i8, ptr %13, align 1, !tbaa !23, !range !25, !noundef !26
  store i8 %14, ptr %1, align 1, !tbaa !23
  br label %_ZN4base14PickleIterator15ReadBuiltinTypeIbEEbPT_.exit

_ZN4base14PickleIterator15ReadBuiltinTypeIbEEbPT_.exit: ; preds = %2, %_ZN4base14PickleIterator24GetReadPointerAndAdvanceIbEEPKcv.exit.i, %12
  %.not9.i = phi i1 [ false, %_ZN4base14PickleIterator24GetReadPointerAndAdvanceIbEEPKcv.exit.i ], [ true, %12 ], [ false, %2 ]
  ret i1 %.not9.i
}